(dp0
S'B-m_underwear_style'
p1
I0
sS'B-fa_pattern'
p2
I1
sS'B-bras_types'
p3
I2
sS'B-type_case_cover'
p4
I3
sS'B-w_tops_neckline'
p5
I4
sS'B-game_type'
p6
I5
sS'B-tee_neckline'
p7
I121
sS'B-strap'
p8
I7
sS'B-sim_slots'
p9
I8
sS'B-hardware'
p10
I9
sS'B-clothing_material'
p11
I10
sS'B-number_of_hdmi_ports'
p12
I11
sS'B-recommended_gender'
p13
I14
sS'I-knife_type'
p14
I15
sS'B-vintage'
p15
I17
sS'B-clothing_length'
p16
I18
sS'B-tee_sleeve_length'
p17
I122
sS'B-bag_pattern_type'
p18
I139
sS'B-doors'
p19
I21
sS'B-interest'
p20
I123
sS'B-main_material'
p21
I125
sS'I-material_type'
p22
I22
sS'B-brand_compatibility'
p23
I23
sS'I-fmlt_makeup'
p24
I25
sS'B-sleeves'
p25
I26
sS'B-connector_type'
p26
I24
sS'I-main_material'
p27
I28
sS'B-fmlt_hand_foot'
p28
I29
sS'B-spirit_age'
p29
I30
sS'B-display_size'
p30
I31
sS'B-w_sleeve_length'
p31
I32
sS'B-concern_oral_care'
p32
I33
sS'B-compatibility_by_model'
p33
I34
sS'B-display_features'
p34
I35
sS'B-storage_capacity_new'
p35
I36
sS'B-rug_make'
p36
I37
sS'B-cable_type_tagg'
p37
I38
sS'B-occasion'
p38
I39
sS'B-formulation'
p39
I40
sS'B-fmlt_face_makeup'
p40
I41
sS'B-m_pantshort_fit_type'
p41
I42
sS'B-material_type'
p42
I43
sS'B-movement'
p43
I44
sS'I-fa_pattern'
p44
I45
sS'B-fmlt_eyes_makeup'
p45
I46
sS'B-tv_technology'
p46
I77
sS'B-type_lighting'
p47
I48
sS'B-model'
p48
I49
sS'B-material'
p49
I50
sS'B-coverage'
p50
I51
sS'I-type_of_heels'
p51
I52
sS'I-strap'
p52
I53
sS'B-camera_brand_comp'
p53
I54
sS'O'
p54
I55
sS'B-inner_material'
p55
I56
sS'B-finish'
p56
I58
sS'B-fmlt_makeup'
p57
I59
sS'B-brand'
p58
I60
sS'B-clothing_fit'
p59
I61
sS'I-product'
p60
I62
sS'B-volume'
p61
I63
sS'B-upper_material'
p62
I64
sS'I-case_material'
p63
I65
sS'B-fmlt_skin_care'
p64
I66
sS'B-operating_system'
p65
I67
sS'B-color_hb'
p66
I68
sS'I-metal'
p67
I69
sS'B-metal'
p68
I12
sS'B-connectivity'
p69
I71
sS'B-frame_color'
p70
I72
sS'B-case_material'
p71
I83
sS'B-modifier'
p72
I74
sS'B-sunglasses_lens_type'
p73
I70
sS'B-feature'
p74
I75
sS'B-powerbank_capacity'
p75
I76
sS'B-dress_length'
p76
I47
sS'B-length'
p77
I113
sS'B-number_of_bottles'
p78
I112
sS'I-model'
p79
I79
sS'I-compatibility_by_model'
p80
I80
sS'B-light_bulb_type'
p81
I81
sS'B-min_aperture'
p82
I82
sS'B-glove_size'
p83
I73
sS'I-type_screen_guard'
p84
I84
sS'B-watch_strap_color'
p85
I100
sS'B-size'
p86
I85
sS'B-character_toys'
p87
I86
sS'B-cpu_brand'
p88
I87
sS'B-input_type'
p89
I88
sS'B-type_of_heels'
p90
I89
sS'B-cleaner'
p91
I90
sS'B-material_filter'
p92
I91
sS'B-frame_type'
p93
I13
sS'I-connectivity'
p94
I93
sS'I-w_sleeve_length'
p95
I94
sS'I-modifier'
p96
I95
sS'I-brand'
p97
I129
sS'B-type_screen_guard'
p98
I96
sS'B-memory_card_type'
p99
I97
sS'B-formulation_supplement'
p100
I98
sS'B-suitable_for_devices'
p101
I99
sS'I-memory_card_type'
p102
I20
sS'B-type_vehicle'
p103
I101
sS'B-case_shape'
p104
I102
sS'B-benefits'
p105
I103
sS'B-whisky_style'
p106
I104
sS'B-accessory_material'
p107
I105
sS'B-media_format'
p108
I106
sS'B-wear_acc_function'
p109
I107
sS'B-computer_memory_type'
p110
I108
sS'I-sleeves'
p111
I57
sS'I-display_features'
p112
I111
sS'I-bag_shape'
p113
I78
sS'B-clock_type'
p114
I109
sS'B-capacity'
p115
I114
sS'B-lining_material'
p116
I115
sS'B-display_size_tv'
p117
I116
sS'B-skin_type'
p118
I117
sS'B-color_family'
p119
I118
sS'I-type_lighting'
p120
I119
sS'B-color'
p121
I120
sS'B-jackets_closure_type'
p122
I6
sS'B-main_stone'
p123
I19
sS'B-product'
p124
I92
sS'B-bag_shape'
p125
I124
sS'B-focal_length'
p126
I27
sS'B-knife_type'
p127
I126
sS'B-wireless_connectivity'
p128
I127
sS'B-shape'
p129
I128
sS'I-shape'
p130
I16
sS'B-panties_styles'
p131
I130
sS'B-grapes_whitewine'
p132
I131
sS'B-ram_memory'
p133
I132
sS'B-collar_type'
p134
I133
sS'I-hoodie_style_type'
p135
I134
sS'B-sole_material'
p136
I135
sS'B-size_wear'
p137
I136
sS'B-hoodie_style_type'
p138
I137
sS'B-ptb_speaker_features'
p139
I145
sS'B-case_function'
p140
I140
sS'I-color'
p141
I141
sS'B-condition'
p142
I110
sS'B-power_ha'
p143
I142
sS'B-display_size_mobile'
p144
I143
sS'B-processor_type'
p145
I144
sS'B-storage_capacity'
p146
I138
sS'B-clothing_size'
p147
I146
sS'B-painting_category'
p148
I147
s.